target datalayout = "e-m:e-p270:32:32-p271:32:32-p272:64:64-i64:64-i128:128-f80:128-n8:16:32:64-S128"
target triple = "x86_64-pc-linux-gnu"

%"class.llvm::SmallVectorBase" = type { ptr, i32, i32 }
%"struct.llvm::coro::Shape" = type { ptr, %"class.llvm::SmallVector", %"class.llvm::SmallVector.34", %"class.llvm::SmallVector.39", %"class.llvm::SmallVector.44", %"class.llvm::SmallVector.49", %"class.llvm::SmallVector.54", %"class.llvm::SmallVector.49", i32, ptr, %"struct.llvm::Align", i64, ptr, ptr, i8, %union.anon }
%"class.llvm::SmallVector" = type { %"class.llvm::SmallVectorImpl", %"struct.llvm::SmallVectorStorage" }
%"class.llvm::SmallVectorImpl" = type { %"class.llvm::SmallVectorTemplateBase" }
%"class.llvm::SmallVectorTemplateBase" = type { %"class.llvm::SmallVectorTemplateCommon" }
%"class.llvm::SmallVectorTemplateCommon" = type { %"class.llvm::SmallVectorBase" }
%"struct.llvm::SmallVectorStorage" = type { [32 x i8] }
%"class.llvm::SmallVector.34" = type { %"class.llvm::SmallVectorImpl.35", %"struct.llvm::SmallVectorStorage.38" }
%"class.llvm::SmallVectorImpl.35" = type { %"class.llvm::SmallVectorTemplateBase.36" }
%"class.llvm::SmallVectorTemplateBase.36" = type { %"class.llvm::SmallVectorTemplateCommon.37" }
%"class.llvm::SmallVectorTemplateCommon.37" = type { %"class.llvm::SmallVectorBase" }
%"struct.llvm::SmallVectorStorage.38" = type { [16 x i8] }
%"class.llvm::SmallVector.39" = type { %"class.llvm::SmallVectorImpl.40", %"struct.llvm::SmallVectorStorage.43" }
%"class.llvm::SmallVectorImpl.40" = type { %"class.llvm::SmallVectorTemplateBase.41" }
%"class.llvm::SmallVectorTemplateBase.41" = type { %"class.llvm::SmallVectorTemplateCommon.42" }
%"class.llvm::SmallVectorTemplateCommon.42" = type { %"class.llvm::SmallVectorBase" }
%"struct.llvm::SmallVectorStorage.43" = type { [16 x i8] }
%"class.llvm::SmallVector.44" = type { %"class.llvm::SmallVectorImpl.45", %"struct.llvm::SmallVectorStorage.48" }
%"class.llvm::SmallVectorImpl.45" = type { %"class.llvm::SmallVectorTemplateBase.46" }
%"class.llvm::SmallVectorTemplateBase.46" = type { %"class.llvm::SmallVectorTemplateCommon.47" }
%"class.llvm::SmallVectorTemplateCommon.47" = type { %"class.llvm::SmallVectorBase" }
%"struct.llvm::SmallVectorStorage.48" = type { [32 x i8] }
%"class.llvm::SmallVector.54" = type { %"class.llvm::SmallVectorImpl.55", %"struct.llvm::SmallVectorStorage.58" }
%"class.llvm::SmallVectorImpl.55" = type { %"class.llvm::SmallVectorTemplateBase.56" }
%"class.llvm::SmallVectorTemplateBase.56" = type { %"class.llvm::SmallVectorTemplateCommon.57" }
%"class.llvm::SmallVectorTemplateCommon.57" = type { %"class.llvm::SmallVectorBase" }
%"struct.llvm::SmallVectorStorage.58" = type { [32 x i8] }
%"class.llvm::SmallVector.49" = type { %"class.llvm::SmallVectorImpl.50", %"struct.llvm::SmallVectorStorage.53" }
%"class.llvm::SmallVectorImpl.50" = type { %"class.llvm::SmallVectorTemplateBase.51" }
%"class.llvm::SmallVectorTemplateBase.51" = type { %"class.llvm::SmallVectorTemplateCommon.52" }
%"class.llvm::SmallVectorTemplateCommon.52" = type { %"class.llvm::SmallVectorBase" }
%"struct.llvm::SmallVectorStorage.53" = type { [16 x i8] }
%"struct.llvm::Align" = type { i8 }
%union.anon = type { %"struct.llvm::coro::Shape::AsyncLoweringStorage" }
%"struct.llvm::coro::Shape::AsyncLoweringStorage" = type { ptr, i32, i32, i64, i64, i64, i64, ptr }
%class.anon.882 = type { ptr, ptr }

; Function Attrs: mustprogress nounwind uwtable
define internal noundef zeroext i1 @"_ZZL12insertSpillsRKN12_GLOBAL__N_113FrameDataInfoERN4llvm4coro5ShapeEENK3$_1clERNS3_3UseE"(ptr noundef nonnull align 8 dereferenceable(16) %0, ptr noundef nonnull align 8 dereferenceable(32) %1) #0 align 2 {
  %3 = alloca ptr, align 8
  %4 = alloca ptr, align 8
  store ptr %0, ptr %3, align 8
  store ptr %1, ptr %4, align 8
  %5 = load ptr, ptr %3, align 8
  %6 = getelementptr inbounds nuw %class.anon.882, ptr %5, i32 0, i32 0
  %7 = load ptr, ptr %6, align 8
  %8 = getelementptr inbounds nuw %class.anon.882, ptr %5, i32 0, i32 1
  %9 = load ptr, ptr %8, align 8
  %10 = getelementptr inbounds nuw %"struct.llvm::coro::Shape", ptr %9, i32 0, i32 0
  %11 = load ptr, ptr %10, align 8
  %12 = load ptr, ptr %4, align 8
  %13 = call noundef zeroext i1 @_ZNK4llvm13DominatorTree9dominatesEPKNS_5ValueERKNS_3UseE(ptr noundef nonnull align 8 dereferenceable(124) %7, ptr noundef %11, ptr noundef nonnull align 8 dereferenceable(32) %12)
  ret i1 %13
}

; Function Attrs: mustprogress nounwind uwtable
define internal noundef zeroext i1 @"_ZN4llvm12function_refIFbRNS_3UseEEE11callback_fnIZL12insertSpillsRKN12_GLOBAL__N_113FrameDataInfoERNS_4coro5ShapeEE3$_1EEblS2_"(i64 noundef %0, ptr noundef nonnull align 8 dereferenceable(32) %1) #0 align 2 {
  %3 = alloca i64, align 8
  %4 = alloca ptr, align 8
  store i64 %0, ptr %3, align 8
  store ptr %1, ptr %4, align 8
  %5 = load i64, ptr %3, align 8
  %6 = inttoptr i64 %5 to ptr
  %7 = load ptr, ptr %4, align 8
  %8 = call noundef zeroext i1 @"_ZZL12insertSpillsRKN12_GLOBAL__N_113FrameDataInfoERN4llvm4coro5ShapeEENK3$_1clERNS3_3UseE"(ptr noundef nonnull align 8 dereferenceable(16) %6, ptr noundef nonnull align 8 dereferenceable(32) %7)
  ret i1 %8
}