; Function Attrs: mustprogress nounwind uwtable
define internal noundef zeroext i1 @"_ZN4llvm12function_refIFbRNS_3UseEEE11callback_fnIZL12insertSpillsRKN12_GLOBAL__N_113FrameDataInfoERNS_4coro5ShapeEE3$_1EEblS2_"(i64 noundef %0, ptr noundef nonnull align 8 dereferenceable(32) %1) #1 align 2 {
  %3 = inttoptr i64 %0 to ptr
  %.val = load ptr, ptr %3, align 8
  %4 = getelementptr i8, ptr %3, i64 8
  %.val1 = load ptr, ptr %4, align 8
  %.val1.val = load ptr, ptr %.val1, align 8
  %5 = tail call noundef zeroext i1 @_ZNK4llvm13DominatorTree9dominatesEPKNS_5ValueERKNS_3UseE(ptr noundef nonnull align 8 dereferenceable(124) %.val, ptr noundef %.val1.val, ptr noundef nonnull align 8 dereferenceable(32) %1) #19
  ret i1 %5
}